target datalayout = "e-m:e-p270:32:32-p271:32:32-p272:64:64-i64:64-i128:128-f80:128-n8:16:32:64-S128"
target triple = "x86_64-pc-linux-gnu"

%struct.lua_State = type { i8, i8, i8, i8, i8, i8, i8, ptr, ptr, ptr, ptr, ptr, ptr, ptr, ptr, i32, i32, i16, i16, i32, ptr, ptr, ptr, ptr, ptr }
%struct.global_State = type { %struct.stringtable, ptr, ptr, i8, i8, ptr, ptr, ptr, i64, i64, i32, i32, i32, [40 x ptr], [40 x ptr], ptr, ptr, ptr, [256 x i64], ptr, %struct.UpVal, [11 x ptr], [11 x ptr], [21 x ptr], %struct.lua_TValue, %struct.lua_TValue, i32, ptr, i64, [4 x i64], %struct.lua_Callbacks, %struct.lua_ExecutionCallbacks, [128 x ptr], [128 x ptr], [128 x ptr], %struct.GCStats }
%struct.stringtable = type { ptr, i32, i32 }
%struct.UpVal = type { i8, i8, i8, i8, ptr, %union.anon }
%union.anon = type { %struct.anon }
%struct.anon = type { ptr, ptr, ptr }
%struct.lua_TValue = type { %union.Value, [1 x i32], i32 }
%union.Value = type { ptr }
%struct.lua_Callbacks = type { ptr, ptr, ptr, ptr, ptr, ptr, ptr, ptr, ptr }
%struct.lua_ExecutionCallbacks = type { ptr, ptr, ptr, ptr, ptr, ptr, ptr }
%struct.GCStats = type { [32 x i32], i32, i32, i64, i64, i64, double, double, double }
%struct.GCheader = type { i8, i8, i8 }

; Function Attrs: mustprogress uwtable
define hidden void @_Z13luaC_barrierfP9lua_StateP8GCObjectS2_(ptr noundef %0, ptr noundef %1, ptr noundef %2) #0 {
  %4 = alloca ptr, align 8
  %5 = alloca ptr, align 8
  %6 = alloca ptr, align 8
  %7 = alloca ptr, align 8
  store ptr %0, ptr %4, align 8
  store ptr %1, ptr %5, align 8
  store ptr %2, ptr %6, align 8
  %8 = load ptr, ptr %4, align 8
  %9 = getelementptr inbounds %struct.lua_State, ptr %8, i32 0, i32 9
  %10 = load ptr, ptr %9, align 8
  store ptr %10, ptr %7, align 8
  %11 = load ptr, ptr %7, align 8
  %12 = getelementptr inbounds %struct.global_State, ptr %11, i32 0, i32 4
  %13 = load i8, ptr %12, align 1
  %14 = zext i8 %13 to i32
  %15 = icmp eq i32 %14, 1
  br i1 %15, label %28, label %16

16:                                               ; preds = %3
  %17 = load ptr, ptr %7, align 8
  %18 = getelementptr inbounds %struct.global_State, ptr %17, i32 0, i32 4
  %19 = load i8, ptr %18, align 1
  %20 = zext i8 %19 to i32
  %21 = icmp eq i32 %20, 2
  br i1 %21, label %28, label %22

22:                                               ; preds = %16
  %23 = load ptr, ptr %7, align 8
  %24 = getelementptr inbounds %struct.global_State, ptr %23, i32 0, i32 4
  %25 = load i8, ptr %24, align 1
  %26 = zext i8 %25 to i32
  %27 = icmp eq i32 %26, 3
  br i1 %27, label %28, label %31

28:                                               ; preds = %22, %16, %3
  %29 = load ptr, ptr %7, align 8
  %30 = load ptr, ptr %6, align 8
  call void @_ZL16reallymarkobjectP12global_StateP8GCObject(ptr noundef %29, ptr noundef %30)
  br label %48

31:                                               ; preds = %22
  %32 = load ptr, ptr %5, align 8
  %33 = getelementptr inbounds %struct.GCheader, ptr %32, i32 0, i32 1
  %34 = load i8, ptr %33, align 1
  %35 = zext i8 %34 to i32
  %36 = and i32 %35, 248
  %37 = load ptr, ptr %7, align 8
  %38 = getelementptr inbounds %struct.global_State, ptr %37, i32 0, i32 3
  %39 = load i8, ptr %38, align 8
  %40 = zext i8 %39 to i32
  %41 = and i32 %40, 3
  %42 = trunc i32 %41 to i8
  %43 = zext i8 %42 to i32
  %44 = or i32 %36, %43
  %45 = trunc i32 %44 to i8
  %46 = load ptr, ptr %5, align 8
  %47 = getelementptr inbounds %struct.GCheader, ptr %46, i32 0, i32 1
  store i8 %45, ptr %47, align 1
  br label %48

48:                                               ; preds = %31, %28
  ret void
}

; Function Attrs: mustprogress uwtable
define hidden void @_Z16luaC_upvalclosedP9lua_StateP5UpVal(ptr noundef %0, ptr noundef %1) #0 {
  %3 = alloca ptr, align 8
  %4 = alloca ptr, align 8
  %5 = alloca ptr, align 8
  %6 = alloca ptr, align 8
  store ptr %0, ptr %3, align 8
  store ptr %1, ptr %4, align 8
  %7 = load ptr, ptr %3, align 8
  %8 = getelementptr inbounds %struct.lua_State, ptr %7, i32 0, i32 9
  %9 = load ptr, ptr %8, align 8
  store ptr %9, ptr %5, align 8
  %10 = load ptr, ptr %4, align 8
  %11 = getelementptr inbounds %struct.UpVal, ptr %10, i64 0
  store ptr %11, ptr %6, align 8
  %12 = load ptr, ptr %6, align 8
  %13 = getelementptr inbounds %struct.GCheader, ptr %12, i32 0, i32 1
  %14 = load i8, ptr %13, align 1
  %15 = zext i8 %14 to i32
  %16 = and i32 %15, 7
  %17 = icmp ne i32 %16, 0
  br i1 %17, label %96, label %18

18:                                               ; preds = %2
  %19 = load ptr, ptr %5, align 8
  %20 = getelementptr inbounds %struct.global_State, ptr %19, i32 0, i32 4
  %21 = load i8, ptr %20, align 1
  %22 = zext i8 %21 to i32
  %23 = icmp eq i32 %22, 1
  br i1 %23, label %36, label %24

24:                                               ; preds = %18
  %25 = load ptr, ptr %5, align 8
  %26 = getelementptr inbounds %struct.global_State, ptr %25, i32 0, i32 4
  %27 = load i8, ptr %26, align 1
  %28 = zext i8 %27 to i32
  %29 = icmp eq i32 %28, 2
  br i1 %29, label %36, label %30

30:                                               ; preds = %24
  %31 = load ptr, ptr %5, align 8
  %32 = getelementptr inbounds %struct.global_State, ptr %31, i32 0, i32 4
  %33 = load i8, ptr %32, align 1
  %34 = zext i8 %33 to i32
  %35 = icmp eq i32 %34, 3
  br i1 %35, label %36, label %78

36:                                               ; preds = %30, %24, %18
  %37 = load ptr, ptr %6, align 8
  %38 = getelementptr inbounds %struct.GCheader, ptr %37, i32 0, i32 1
  %39 = load i8, ptr %38, align 1
  %40 = zext i8 %39 to i32
  %41 = or i32 %40, 4
  %42 = trunc i32 %41 to i8
  store i8 %42, ptr %38, align 1
  %43 = load ptr, ptr %4, align 8
  %44 = getelementptr inbounds %struct.UpVal, ptr %43, i32 0, i32 4
  %45 = load ptr, ptr %44, align 8
  %46 = getelementptr inbounds %struct.lua_TValue, ptr %45, i32 0, i32 2
  %47 = load i32, ptr %46, align 4
  %48 = icmp sge i32 %47, 5
  br i1 %48, label %49, label %77

49:                                               ; preds = %36
  %50 = load ptr, ptr %4, align 8
  %51 = getelementptr inbounds %struct.UpVal, ptr %50, i64 0
  %52 = getelementptr inbounds %struct.GCheader, ptr %51, i32 0, i32 1
  %53 = load i8, ptr %52, align 1
  %54 = zext i8 %53 to i32
  %55 = and i32 %54, 4
  %56 = icmp ne i32 %55, 0
  br i1 %56, label %57, label %77

57:                                               ; preds = %49
  %58 = load ptr, ptr %4, align 8
  %59 = getelementptr inbounds %struct.UpVal, ptr %58, i32 0, i32 4
  %60 = load ptr, ptr %59, align 8
  %61 = getelementptr inbounds %struct.lua_TValue, ptr %60, i32 0, i32 0
  %62 = load ptr, ptr %61, align 8
  %63 = getelementptr inbounds %struct.GCheader, ptr %62, i32 0, i32 1
  %64 = load i8, ptr %63, align 1
  %65 = zext i8 %64 to i32
  %66 = and i32 %65, 3
  %67 = icmp ne i32 %66, 0
  br i1 %67, label %68, label %77

68:                                               ; preds = %57
  %69 = load ptr, ptr %3, align 8
  %70 = load ptr, ptr %4, align 8
  %71 = getelementptr inbounds %struct.UpVal, ptr %70, i64 0
  %72 = load ptr, ptr %4, align 8
  %73 = getelementptr inbounds %struct.UpVal, ptr %72, i32 0, i32 4
  %74 = load ptr, ptr %73, align 8
  %75 = getelementptr inbounds %struct.lua_TValue, ptr %74, i32 0, i32 0
  %76 = load ptr, ptr %75, align 8
  call void @_Z13luaC_barrierfP9lua_StateP8GCObjectS2_(ptr noundef %69, ptr noundef %71, ptr noundef %76)
  br label %77

77:                                               ; preds = %68, %57, %49, %36
  br label %95

78:                                               ; preds = %30
  %79 = load ptr, ptr %6, align 8
  %80 = getelementptr inbounds %struct.GCheader, ptr %79, i32 0, i32 1
  %81 = load i8, ptr %80, align 1
  %82 = zext i8 %81 to i32
  %83 = and i32 %82, 248
  %84 = load ptr, ptr %5, align 8
  %85 = getelementptr inbounds %struct.global_State, ptr %84, i32 0, i32 3
  %86 = load i8, ptr %85, align 8
  %87 = zext i8 %86 to i32
  %88 = and i32 %87, 3
  %89 = trunc i32 %88 to i8
  %90 = zext i8 %89 to i32
  %91 = or i32 %83, %90
  %92 = trunc i32 %91 to i8
  %93 = load ptr, ptr %6, align 8
  %94 = getelementptr inbounds %struct.GCheader, ptr %93, i32 0, i32 1
  store i8 %92, ptr %94, align 1
  br label %95

95:                                               ; preds = %78, %77
  br label %96

96:                                               ; preds = %95, %2
  ret void
}