; Function Attrs: mustprogress nofree nosync nounwind memory(readwrite, inaccessiblemem: none) uwtable
define hidden void @_Z16luaC_upvalclosedP9lua_StateP5UpVal(ptr nocapture noundef readonly %0, ptr nocapture noundef %1) local_unnamed_addr #2 {
  %3 = getelementptr inbounds i8, ptr %0, i64 24
  %4 = load ptr, ptr %3, align 8
  %5 = getelementptr inbounds i8, ptr %1, i64 1
  %6 = load i8, ptr %5, align 1
  %7 = and i8 %6, 7
  %.not = icmp eq i8 %7, 0
  br i1 %.not, label %8, label %_Z13luaC_barrierfP9lua_StateP8GCObjectS2_.exit

8:                                                ; preds = %2
  %9 = getelementptr inbounds i8, ptr %4, i64 33
  %10 = load i8, ptr %9, align 1
  %.off = add i8 %10, -1
  %switch = icmp ult i8 %.off, 3
  br i1 %switch, label %11, label %33

11:                                               ; preds = %8
  %12 = or disjoint i8 %6, 4
  store i8 %12, ptr %5, align 1
  %13 = getelementptr inbounds i8, ptr %1, i64 8
  %14 = load ptr, ptr %13, align 8
  %15 = getelementptr inbounds i8, ptr %14, i64 12
  %16 = load i32, ptr %15, align 4
  %17 = icmp sgt i32 %16, 4
  br i1 %17, label %18, label %_Z13luaC_barrierfP9lua_StateP8GCObjectS2_.exit

18:                                               ; preds = %11
  %19 = load ptr, ptr %14, align 8
  %20 = getelementptr inbounds i8, ptr %19, i64 1
  %21 = load i8, ptr %20, align 1
  %22 = and i8 %21, 3
  %.not16 = icmp eq i8 %22, 0
  br i1 %.not16, label %_Z13luaC_barrierfP9lua_StateP8GCObjectS2_.exit, label %23

23:                                               ; preds = %18
  %24 = load ptr, ptr %3, align 8
  %25 = getelementptr inbounds i8, ptr %24, i64 33
  %26 = load i8, ptr %25, align 1
  %.off.i = add i8 %26, -1
  %switch.i = icmp ult i8 %.off.i, 3
  br i1 %switch.i, label %27, label %28

27:                                               ; preds = %23
  tail call fastcc void @_ZL16reallymarkobjectP12global_StateP8GCObject(ptr noundef nonnull %24, ptr noundef nonnull %19)
  br label %_Z13luaC_barrierfP9lua_StateP8GCObjectS2_.exit

28:                                               ; preds = %23
  %29 = getelementptr inbounds i8, ptr %24, i64 32
  %30 = load i8, ptr %29, align 8
  %31 = and i8 %30, 3
  %32 = or disjoint i8 %31, %6
  store i8 %32, ptr %5, align 1
  br label %_Z13luaC_barrierfP9lua_StateP8GCObjectS2_.exit

33:                                               ; preds = %8
  %34 = getelementptr inbounds i8, ptr %4, i64 32
  %35 = load i8, ptr %34, align 8
  %36 = and i8 %35, 3
  %37 = or disjoint i8 %36, %6
  store i8 %37, ptr %5, align 1
  br label %_Z13luaC_barrierfP9lua_StateP8GCObjectS2_.exit

_Z13luaC_barrierfP9lua_StateP8GCObjectS2_.exit:   ; preds = %28, %27, %33, %18, %11, %2
  ret void
}